target datalayout = "e-m:e-p270:32:32-p271:32:32-p272:64:64-i64:64-i128:128-f80:128-n8:16:32:64-S128"
target triple = "x86_64-pc-linux-gnu"

%"class.llvm::Metadata" = type { i8, i8, i16, i32 }
%"class.llvm::ArrayRef" = type { ptr, i64 }

; Function Attrs: mustprogress nounwind uwtable
define linkonce_odr hidden void @_ZN4llvm10DILocation15setImplicitCodeEb(ptr noundef nonnull align 8 dereferenceable(16) %0, i1 noundef zeroext %1) #1 comdat align 2 {
  %3 = alloca ptr, align 8
  %4 = alloca i8, align 1
  store ptr %0, ptr %3, align 8
  %5 = zext i1 %1 to i8
  store i8 %5, ptr %4, align 1
  %6 = load ptr, ptr %3, align 8
  %7 = load i8, ptr %4, align 1
  %8 = trunc i8 %7 to i1
  %9 = zext i1 %8 to i8
  %10 = getelementptr inbounds nuw %"class.llvm::Metadata", ptr %6, i32 0, i32 1
  %11 = load i8, ptr %10, align 1
  %12 = and i8 %9, 1
  %13 = shl i8 %12, 7
  %14 = and i8 %11, 127
  %15 = or i8 %14, %13
  store i8 %15, ptr %10, align 1
  ret void
}

; Function Attrs: mustprogress nounwind uwtable
define linkonce_odr hidden void @_ZN4llvm8ArrayRefIPNS_8MetadataEEC2ESt9nullopt_t(ptr noundef nonnull align 8 dereferenceable(16) %0) unnamed_addr #1 comdat align 2 {
  %2 = alloca ptr, align 8
  store ptr %0, ptr %2, align 8
  %3 = load ptr, ptr %2, align 8
  %4 = getelementptr inbounds nuw %"class.llvm::ArrayRef", ptr %3, i32 0, i32 0
  store ptr null, ptr %4, align 8
  %5 = getelementptr inbounds nuw %"class.llvm::ArrayRef", ptr %3, i32 0, i32 1
  store i64 0, ptr %5, align 8
  ret void
}

; Function Attrs: mustprogress nounwind uwtable
define dso_local void @_ZN4llvm10DILocationC2ERNS_11LLVMContextENS_8Metadata11StorageTypeEjjNS_8ArrayRefIPS3_EEb(ptr noundef nonnull align 8 dereferenceable(16) %0, ptr noundef nonnull align 8 dereferenceable(8) %1, i32 noundef %2, i32 noundef %3, i32 noundef %4, ptr noundef byval(%"class.llvm::ArrayRef") align 8 %5, i1 noundef zeroext %6) unnamed_addr #1 align 2 {
  %8 = alloca ptr, align 8
  %9 = alloca ptr, align 8
  %10 = alloca i32, align 4
  %11 = alloca i32, align 4
  %12 = alloca i32, align 4
  %13 = alloca i8, align 1
  %14 = alloca %"class.llvm::ArrayRef", align 8
  %15 = alloca %"class.llvm::ArrayRef", align 8
  store ptr %0, ptr %8, align 8
  store ptr %1, ptr %9, align 8
  store i32 %2, ptr %10, align 4
  store i32 %3, ptr %11, align 4
  store i32 %4, ptr %12, align 4
  %16 = zext i1 %6 to i8
  store i8 %16, ptr %13, align 1
  %17 = load ptr, ptr %8, align 8
  %18 = load ptr, ptr %9, align 8
  %19 = load i32, ptr %10, align 4
  call void @llvm.memcpy.p0.p0.i64(ptr align 8 %14, ptr align 8 %5, i64 16, i1 false)
  call void @_ZN4llvm8ArrayRefIPNS_8MetadataEEC2ESt9nullopt_t(ptr noundef nonnull align 8 dereferenceable(16) %15)
  %20 = getelementptr inbounds nuw { ptr, i64 }, ptr %14, i32 0, i32 0
  %21 = load ptr, ptr %20, align 8
  %22 = getelementptr inbounds nuw { ptr, i64 }, ptr %14, i32 0, i32 1
  %23 = load i64, ptr %22, align 8
  call void @_ZN4llvm6MDNodeC2ERNS_11LLVMContextEjNS_8Metadata11StorageTypeENS_8ArrayRefIPS3_EES7_(ptr noundef nonnull align 8 dereferenceable(16) %17, ptr noundef nonnull align 8 dereferenceable(8) %18, i32 noundef 6, i32 noundef %19, ptr %21, i64 %23, ptr noundef byval(%"class.llvm::ArrayRef") align 8 %15)
  %24 = load i32, ptr %11, align 4
  %25 = getelementptr inbounds nuw %"class.llvm::Metadata", ptr %17, i32 0, i32 3
  store i32 %24, ptr %25, align 4
  %26 = load i32, ptr %12, align 4
  %27 = trunc i32 %26 to i16
  %28 = getelementptr inbounds nuw %"class.llvm::Metadata", ptr %17, i32 0, i32 2
  store i16 %27, ptr %28, align 2
  %29 = load i8, ptr %13, align 1
  %30 = trunc i8 %29 to i1
  call void @_ZN4llvm10DILocation15setImplicitCodeEb(ptr noundef nonnull align 8 dereferenceable(16) %17, i1 noundef zeroext %30)
  ret void
}