; Function Attrs: mustprogress nounwind uwtable
define dso_local void @_ZN4llvm10DILocationC2ERNS_11LLVMContextENS_8Metadata11StorageTypeEjjNS_8ArrayRefIPS3_EEb(ptr noundef nonnull align 8 dereferenceable(16) %0, ptr noundef nonnull align 8 dereferenceable(8) %1, i32 noundef %2, i32 noundef %3, i32 noundef %4, ptr nocapture noundef readonly byval(%"class.llvm::ArrayRef") align 8 %5, i1 noundef zeroext %6) unnamed_addr #0 align 2 {
  %8 = alloca %"class.llvm::ArrayRef", align 8
  %.sroa.0.0.copyload = load ptr, ptr %5, align 8
  %.sroa.2.0..sroa_idx = getelementptr inbounds i8, ptr %5, i64 8
  %.sroa.2.0.copyload = load i64, ptr %.sroa.2.0..sroa_idx, align 8
  call void @llvm.memset.p0.i64(ptr noundef nonnull align 8 dereferenceable(16) %8, i8 0, i64 16, i1 false)
  tail call void @_ZN4llvm6MDNodeC2ERNS_11LLVMContextEjNS_8Metadata11StorageTypeENS_8ArrayRefIPS3_EES7_(ptr noundef nonnull align 8 dereferenceable(16) %0, ptr noundef nonnull align 8 dereferenceable(8) %1, i32 noundef 6, i32 noundef %2, ptr %.sroa.0.0.copyload, i64 %.sroa.2.0.copyload, ptr noundef nonnull byval(%"class.llvm::ArrayRef") align 8 %8) #24
  %9 = getelementptr inbounds nuw i8, ptr %0, i64 4
  store i32 %3, ptr %9, align 4
  %10 = trunc i32 %4 to i16
  %11 = getelementptr inbounds nuw i8, ptr %0, i64 2
  store i16 %10, ptr %11, align 2
  %12 = getelementptr inbounds nuw i8, ptr %0, i64 1
  %13 = load i8, ptr %12, align 1
  %14 = select i1 %6, i8 -128, i8 0
  %15 = and i8 %13, 127
  %16 = or disjoint i8 %15, %14
  store i8 %16, ptr %12, align 1
  ret void
}